; Function Attrs: nounwind uwtable
define zeroext range(i8 0, 2) i8 @l_Lean_Linter_initFn____x40_Lean_Linter_UnusedVariables___hyg_1427____lambda__1(ptr noundef %0, ptr noundef readonly captures(none) %1, i64 noundef %2, ptr noundef readnone captures(none) %3) local_unnamed_addr #1 {
  %5 = tail call ptr @l_Lean_Syntax_getArg(ptr noundef %0, ptr noundef nonnull inttoptr (i64 9 to ptr)) #7
  %6 = tail call zeroext i8 @l_Lean_Syntax_matchesNull(ptr noundef %5, ptr noundef nonnull inttoptr (i64 1 to ptr)) #7
  %7 = icmp eq i8 %6, 0
  br i1 %7, label %lean_dec.exit24, label %8

8:                                                ; preds = %4
  %9 = tail call ptr @l_Lean_Syntax_getArg(ptr noundef %0, ptr noundef nonnull inttoptr (i64 11 to ptr)) #7
  %10 = tail call zeroext i8 @l_Lean_Syntax_matchesNull(ptr noundef %9, ptr noundef nonnull inttoptr (i64 1 to ptr)) #7
  %11 = icmp eq i8 %10, 0
  br i1 %11, label %lean_dec.exit24, label %lean_nat_lt.exit

lean_nat_lt.exit:                                 ; preds = %8
  %12 = getelementptr i8, ptr %1, i64 8
  %.val = load i64, ptr %12, align 8, !tbaa !12
  %.mask = and i64 %.val, 9223372036854775807
  %.not = icmp eq i64 %.mask, 0
  br i1 %.not, label %lean_dec.exit24, label %lean_dec.exit

lean_dec.exit:                                    ; preds = %lean_nat_lt.exit
  %13 = tail call zeroext i8 @l_Array_anyMUnsafe_any___at_Lean_Linter_initFn____x40_Lean_Linter_UnusedVariables___hyg_1427____spec__2(ptr noundef nonnull %1, i64 noundef %2, i64 noundef %.mask)
  br label %lean_dec.exit24

lean_dec.exit24:                                  ; preds = %lean_nat_lt.exit, %8, %lean_dec.exit, %4
  %.0 = phi i8 [ 0, %4 ], [ 0, %8 ], [ %13, %lean_dec.exit ], [ 0, %lean_nat_lt.exit ]
  ret i8 %.0
}